; ModuleID = '55/530.c'
source_filename = "55/530.c"
target datalayout = "e-m:e-p270:32:32-p271:32:32-p272:64:64-i64:64-f80:128-n8:16:32:64-S128"
target triple = "x86_64-pc-linux-gnu"

@.str = private unnamed_addr constant [3 x i8] c"%d\00", align 1
@.str.1 = private unnamed_addr constant [3 x i8] c"%s\00", align 1
@.str.2 = private unnamed_addr constant [3 x i8] c"%c\00", align 1

; Function Attrs: noinline nounwind uwtable
define dso_local i32 @f(i32 %0, i32 %1) #0 {
  %3 = alloca i32, align 4
  %4 = alloca i32, align 4
  %5 = alloca i32, align 4
  %6 = alloca i32, align 4
  store i32 %0, i32* %3, align 4
  store i32 %1, i32* %4, align 4
  store i32 1, i32* %5, align 4
  %7 = load i32, i32* %4, align 4
  %8 = icmp eq i32 %7, 0
  br i1 %8, label %9, label %10

9:                                                ; preds = %2
  store i32 1, i32* %5, align 4
  br label %23

10:                                               ; preds = %2
  store i32 0, i32* %6, align 4
  br label %11

11:                                               ; preds = %19, %10
  %12 = load i32, i32* %6, align 4
  %13 = load i32, i32* %4, align 4
  %14 = icmp slt i32 %12, %13
  br i1 %14, label %15, label %22

15:                                               ; preds = %11
  %16 = load i32, i32* %3, align 4
  %17 = load i32, i32* %5, align 4
  %18 = mul nsw i32 %17, %16
  store i32 %18, i32* %5, align 4
  br label %19

19:                                               ; preds = %15
  %20 = load i32, i32* %6, align 4
  %21 = add nsw i32 %20, 1
  store i32 %21, i32* %6, align 4
  br label %11

22:                                               ; preds = %11
  br label %23

23:                                               ; preds = %22, %9
  %24 = load i32, i32* %5, align 4
  ret i32 %24
}

; Function Attrs: noinline nounwind uwtable
define dso_local void @main() #0 {
  %1 = alloca i32, align 4
  %2 = alloca i32, align 4
  %3 = alloca i32, align 4
  %4 = alloca i32, align 4
  %5 = alloca i32, align 4
  %6 = alloca i32, align 4
  %7 = alloca [100 x i8], align 16
  %8 = alloca [100 x i8], align 16
  store i32 0, i32* %5, align 4
  store i32 0, i32* %6, align 4
  %9 = bitcast [100 x i8]* %7 to i8*
  call void @llvm.memset.p0i8.i64(i8* align 16 %9, i8 0, i64 100, i1 false)
  %10 = bitcast [100 x i8]* %8 to i8*
  call void @llvm.memset.p0i8.i64(i8* align 16 %10, i8 0, i64 100, i1 false)
  %11 = call i32 (i8*, ...) @__isoc99_scanf(i8* getelementptr inbounds ([3 x i8], [3 x i8]* @.str, i64 0, i64 0), i32* %2)
  %12 = getelementptr inbounds [100 x i8], [100 x i8]* %7, i64 0, i64 0
  %13 = call i32 (i8*, ...) @__isoc99_scanf(i8* getelementptr inbounds ([3 x i8], [3 x i8]* @.str.1, i64 0, i64 0), i8* %12)
  %14 = call i32 (i8*, ...) @__isoc99_scanf(i8* getelementptr inbounds ([3 x i8], [3 x i8]* @.str, i64 0, i64 0), i32* %3)
  %15 = getelementptr inbounds [100 x i8], [100 x i8]* %7, i64 0, i64 0
  %16 = call i64 @strlen(i8* %15) #4
  %17 = trunc i64 %16 to i32
  store i32 %17, i32* %4, align 4
  store i32 0, i32* %1, align 4
  br label %18

18:                                               ; preds = %102, %0
  %19 = load i32, i32* %1, align 4
  %20 = load i32, i32* %4, align 4
  %21 = icmp slt i32 %19, %20
  br i1 %21, label %22, label %105

22:                                               ; preds = %18
  %23 = load i32, i32* %1, align 4
  %24 = sext i32 %23 to i64
  %25 = getelementptr inbounds [100 x i8], [100 x i8]* %7, i64 0, i64 %24
  %26 = load i8, i8* %25, align 1
  %27 = sext i8 %26 to i32
  %28 = icmp sge i32 %27, 97
  br i1 %28, label %29, label %48

29:                                               ; preds = %22
  %30 = load i32, i32* %1, align 4
  %31 = sext i32 %30 to i64
  %32 = getelementptr inbounds [100 x i8], [100 x i8]* %7, i64 0, i64 %31
  %33 = load i8, i8* %32, align 1
  %34 = sext i8 %33 to i32
  %35 = icmp sle i32 %34, 122
  br i1 %35, label %36, label %48

36:                                               ; preds = %29
  %37 = load i32, i32* %1, align 4
  %38 = sext i32 %37 to i64
  %39 = getelementptr inbounds [100 x i8], [100 x i8]* %7, i64 0, i64 %38
  %40 = load i8, i8* %39, align 1
  %41 = sext i8 %40 to i32
  %42 = sub nsw i32 %41, 97
  %43 = add nsw i32 %42, 10
  %44 = trunc i32 %43 to i8
  %45 = load i32, i32* %1, align 4
  %46 = sext i32 %45 to i64
  %47 = getelementptr inbounds [100 x i8], [100 x i8]* %7, i64 0, i64 %46
  store i8 %44, i8* %47, align 1
  br label %86

48:                                               ; preds = %29, %22
  %49 = load i32, i32* %1, align 4
  %50 = sext i32 %49 to i64
  %51 = getelementptr inbounds [100 x i8], [100 x i8]* %7, i64 0, i64 %50
  %52 = load i8, i8* %51, align 1
  %53 = sext i8 %52 to i32
  %54 = icmp sge i32 %53, 65
  br i1 %54, label %55, label %74

55:                                               ; preds = %48
  %56 = load i32, i32* %1, align 4
  %57 = sext i32 %56 to i64
  %58 = getelementptr inbounds [100 x i8], [100 x i8]* %7, i64 0, i64 %57
  %59 = load i8, i8* %58, align 1
  %60 = sext i8 %59 to i32
  %61 = icmp sle i32 %60, 90
  br i1 %61, label %62, label %74

62:                                               ; preds = %55
  %63 = load i32, i32* %1, align 4
  %64 = sext i32 %63 to i64
  %65 = getelementptr inbounds [100 x i8], [100 x i8]* %7, i64 0, i64 %64
  %66 = load i8, i8* %65, align 1
  %67 = sext i8 %66 to i32
  %68 = sub nsw i32 %67, 65
  %69 = add nsw i32 %68, 10
  %70 = trunc i32 %69 to i8
  %71 = load i32, i32* %1, align 4
  %72 = sext i32 %71 to i64
  %73 = getelementptr inbounds [100 x i8], [100 x i8]* %7, i64 0, i64 %72
  store i8 %70, i8* %73, align 1
  br label %85

74:                                               ; preds = %55, %48
  %75 = load i32, i32* %1, align 4
  %76 = sext i32 %75 to i64
  %77 = getelementptr inbounds [100 x i8], [100 x i8]* %7, i64 0, i64 %76
  %78 = load i8, i8* %77, align 1
  %79 = sext i8 %78 to i32
  %80 = sub nsw i32 %79, 48
  %81 = trunc i32 %80 to i8
  %82 = load i32, i32* %1, align 4
  %83 = sext i32 %82 to i64
  %84 = getelementptr inbounds [100 x i8], [100 x i8]* %7, i64 0, i64 %83
  store i8 %81, i8* %84, align 1
  br label %85

85:                                               ; preds = %74, %62
  br label %86

86:                                               ; preds = %85, %36
  %87 = load i32, i32* %4, align 4
  %88 = sub nsw i32 %87, 1
  %89 = load i32, i32* %1, align 4
  %90 = sub nsw i32 %88, %89
  store i32 %90, i32* %5, align 4
  %91 = load i32, i32* %1, align 4
  %92 = sext i32 %91 to i64
  %93 = getelementptr inbounds [100 x i8], [100 x i8]* %7, i64 0, i64 %92
  %94 = load i8, i8* %93, align 1
  %95 = sext i8 %94 to i32
  %96 = load i32, i32* %2, align 4
  %97 = load i32, i32* %5, align 4
  %98 = call i32 @f(i32 %96, i32 %97)
  %99 = mul nsw i32 %95, %98
  %100 = load i32, i32* %6, align 4
  %101 = add nsw i32 %100, %99
  store i32 %101, i32* %6, align 4
  br label %102

102:                                              ; preds = %86
  %103 = load i32, i32* %1, align 4
  %104 = add nsw i32 %103, 1
  store i32 %104, i32* %1, align 4
  br label %18

105:                                              ; preds = %18
  store i32 0, i32* %1, align 4
  br label %106

106:                                              ; preds = %153, %105
  %107 = load i32, i32* %1, align 4
  %108 = icmp sge i32 %107, 0
  br i1 %108, label %109, label %156

109:                                              ; preds = %106
  %110 = load i32, i32* %6, align 4
  %111 = load i32, i32* %3, align 4
  %112 = srem i32 %110, %111
  %113 = trunc i32 %112 to i8
  %114 = load i32, i32* %1, align 4
  %115 = sext i32 %114 to i64
  %116 = getelementptr inbounds [100 x i8], [100 x i8]* %8, i64 0, i64 %115
  store i8 %113, i8* %116, align 1
  %117 = load i32, i32* %1, align 4
  %118 = sext i32 %117 to i64
  %119 = getelementptr inbounds [100 x i8], [100 x i8]* %8, i64 0, i64 %118
  %120 = load i8, i8* %119, align 1
  %121 = sext i8 %120 to i32
  %122 = icmp sgt i32 %121, 9
  br i1 %122, label %123, label %135

123:                                              ; preds = %109
  %124 = load i32, i32* %1, align 4
  %125 = sext i32 %124 to i64
  %126 = getelementptr inbounds [100 x i8], [100 x i8]* %8, i64 0, i64 %125
  %127 = load i8, i8* %126, align 1
  %128 = sext i8 %127 to i32
  %129 = sub nsw i32 %128, 10
  %130 = add nsw i32 %129, 65
  %131 = trunc i32 %130 to i8
  %132 = load i32, i32* %1, align 4
  %133 = sext i32 %132 to i64
  %134 = getelementptr inbounds [100 x i8], [100 x i8]* %8, i64 0, i64 %133
  store i8 %131, i8* %134, align 1
  br label %146

135:                                              ; preds = %109
  %136 = load i32, i32* %1, align 4
  %137 = sext i32 %136 to i64
  %138 = getelementptr inbounds [100 x i8], [100 x i8]* %8, i64 0, i64 %137
  %139 = load i8, i8* %138, align 1
  %140 = sext i8 %139 to i32
  %141 = add nsw i32 %140, 48
  %142 = trunc i32 %141 to i8
  %143 = load i32, i32* %1, align 4
  %144 = sext i32 %143 to i64
  %145 = getelementptr inbounds [100 x i8], [100 x i8]* %8, i64 0, i64 %144
  store i8 %142, i8* %145, align 1
  br label %146

146:                                              ; preds = %135, %123
  %147 = load i32, i32* %6, align 4
  %148 = load i32, i32* %3, align 4
  %149 = sdiv i32 %147, %148
  store i32 %149, i32* %6, align 4
  %150 = load i32, i32* %6, align 4
  %151 = icmp eq i32 %150, 0
  br i1 %151, label %152, label %153

152:                                              ; preds = %146
  br label %156

153:                                              ; preds = %146
  %154 = load i32, i32* %1, align 4
  %155 = add nsw i32 %154, 1
  store i32 %155, i32* %1, align 4
  br label %106

156:                                              ; preds = %152, %106
  %157 = load i32, i32* %1, align 4
  store i32 %157, i32* %4, align 4
  %158 = load i32, i32* %4, align 4
  store i32 %158, i32* %1, align 4
  br label %159

159:                                              ; preds = %169, %156
  %160 = load i32, i32* %1, align 4
  %161 = icmp sge i32 %160, 0
  br i1 %161, label %162, label %172

162:                                              ; preds = %159
  %163 = load i32, i32* %1, align 4
  %164 = sext i32 %163 to i64
  %165 = getelementptr inbounds [100 x i8], [100 x i8]* %8, i64 0, i64 %164
  %166 = load i8, i8* %165, align 1
  %167 = sext i8 %166 to i32
  %168 = call i32 (i8*, ...) @printf(i8* getelementptr inbounds ([3 x i8], [3 x i8]* @.str.2, i64 0, i64 0), i32 %167)
  br label %169

169:                                              ; preds = %162
  %170 = load i32, i32* %1, align 4
  %171 = add nsw i32 %170, -1
  store i32 %171, i32* %1, align 4
  br label %159

172:                                              ; preds = %159
  ret void
}

; Function Attrs: argmemonly nounwind willreturn
declare void @llvm.memset.p0i8.i64(i8* nocapture writeonly, i8, i64, i1 immarg) #1

declare dso_local i32 @__isoc99_scanf(i8*, ...) #2

; Function Attrs: nounwind readonly
declare dso_local i64 @strlen(i8*) #3

declare dso_local i32 @printf(i8*, ...) #2


!llvm.module.flags = !{!0}
!llvm.ident = !{!1}

!0 = !{i32 1, !"wchar_size", i32 4}
!1 = !{!"clang version 10.0.0-4ubuntu1 "}
